
mm:     file format elf32-littlemips


Disassembly of section .startup:

00000000 <_start>:
   0:	00000000 	nop
   4:	00000821 	move	$1,$0
   8:	00001021 	move	$2,$0
   c:	00001821 	move	$3,$0
  10:	00002021 	move	$4,$0
  14:	00002821 	move	$5,$0
  18:	00003021 	move	$6,$0
  1c:	00003821 	move	$7,$0
  20:	00004021 	move	$8,$0
  24:	00004821 	move	$9,$0
  28:	00005021 	move	$10,$0
  2c:	00005821 	move	$11,$0
  30:	00006021 	move	$12,$0
  34:	00006821 	move	$13,$0
  38:	00007021 	move	$14,$0
  3c:	00007821 	move	$15,$0
  40:	00008021 	move	$16,$0
  44:	00008821 	move	$17,$0
  48:	00009021 	move	$18,$0
  4c:	00009821 	move	$19,$0
  50:	0000a021 	move	$20,$0
  54:	0000a821 	move	$21,$0
  58:	0000b021 	move	$22,$0
  5c:	0000b821 	move	$23,$0
  60:	0000c021 	move	$24,$0
  64:	0000c821 	move	$25,$0
  68:	0000d021 	move	$26,$0
  6c:	0000d821 	move	$27,$0
  70:	0000f021 	move	$30,$0
  74:	0000f821 	move	$31,$0
  78:	3c1c0005 	lui	$28,0x5
  7c:	279c7ff0 	addiu	$28,$28,32752
  80:	3c1d7fff 	lui	$29,0x7fff
  84:	37bdff00 	ori	$29,$29,0xff00
  88:	0800032c 	j	cb0 <main>
  8c:	00000000 	nop

Disassembly of section .text:

00000200 <output_buffer_put>:
     200:	8f828410 	lw	$2,-31728($28)
     204:	3c070005 	lui	$7,0x5
     208:	24e70000 	addiu	$7,$7,0
     20c:	24430001 	addiu	$3,$2,1
     210:	28650400 	slti	$5,$3,1024
     214:	00471021 	addu	$2,$2,$7
     218:	af838410 	sw	$3,-31728($28)
     21c:	14a00008 	bnez	$5,240 <output_buffer_put+0x40>
     220:	a0440000 	sb	$4,0($2)
     224:	24040001 	li	$4,1
     228:	00e02821 	move	$5,$7
     22c:	00603021 	move	$6,$3
     230:	24020fa4 	li	$2,4004
     234:	0000000c 	syscall
     238:	00401821 	move	$3,$2
     23c:	af808410 	sw	$0,-31728($28)
     240:	03e00008 	jr	$31
     244:	00000000 	nop

00000248 <mylib_wait>:
     248:	27bdfff8 	addiu	$29,$29,-8
     24c:	00001021 	move	$2,$0
     250:	afa00000 	sw	$0,0($29)
     254:	24040028 	li	$4,40
     258:	8fa30000 	lw	$3,0($29)
     25c:	00000000 	nop
     260:	00621821 	addu	$3,$3,$2
     264:	24420001 	addiu	$2,$2,1
     268:	1444fffb 	bne	$2,$4,258 <mylib_wait+0x10>
     26c:	afa30000 	sw	$3,0($29)
     270:	03e00008 	jr	$31
     274:	27bd0008 	addiu	$29,$29,8

00000278 <mylib_display_dec>:
     278:	27bdfbe0 	addiu	$29,$29,-1056
     27c:	afbf041c 	sw	$31,1052($29)
     280:	afb20418 	sw	$18,1048($29)
     284:	afb10414 	sw	$17,1044($29)
     288:	04800018 	bltz	$4,2ec <mylib_display_dec+0x74>
     28c:	afb00410 	sw	$16,1040($29)
     290:	14800068 	bnez	$4,434 <mylib_display_dec+0x1bc>
     294:	24020030 	li	$2,48
     298:	afa20010 	sw	$2,16($29)
     29c:	24040030 	li	$4,48
     2a0:	00008021 	move	$16,$0
     2a4:	27a90010 	addiu	$9,$29,16
     2a8:	2610ffff 	addiu	$16,$16,-1
     2ac:	00108880 	sll	$17,$16,0x2
     2b0:	01318821 	addu	$17,$9,$17
     2b4:	080000b1 	j	2c4 <mylib_display_dec+0x4c>
     2b8:	2412ffff 	li	$18,-1
     2bc:	8e240000 	lw	$4,0($17)
     2c0:	2631fffc 	addiu	$17,$17,-4
     2c4:	0c000080 	jal	200 <output_buffer_put>
     2c8:	00000000 	nop
     2cc:	1612fffb 	bne	$16,$18,2bc <mylib_display_dec+0x44>
     2d0:	2610ffff 	addiu	$16,$16,-1
     2d4:	8fbf041c 	lw	$31,1052($29)
     2d8:	8fb20418 	lw	$18,1048($29)
     2dc:	8fb10414 	lw	$17,1044($29)
     2e0:	8fb00410 	lw	$16,1040($29)
     2e4:	03e00008 	jr	$31
     2e8:	27bd0420 	addiu	$29,$29,1056
     2ec:	00042023 	negu	$4,$4
     2f0:	240b0001 	li	$11,1
     2f4:	3c066666 	lui	$6,0x6666
     2f8:	24c66667 	addiu	$6,$6,26215
     2fc:	00860018 	mult	$4,$6
     300:	00042fc3 	sra	$5,$4,0x1f
     304:	27a90010 	addiu	$9,$29,16
     308:	01201821 	move	$3,$9
     30c:	00004021 	move	$8,$0
     310:	240a0001 	li	$10,1
     314:	240c0002 	li	$12,2
     318:	240d0003 	li	$13,3
     31c:	240e0004 	li	$14,4
     320:	240f0005 	li	$15,5
     324:	24110006 	li	$17,6
     328:	00001010 	mfhi	$2
     32c:	00021083 	sra	$2,$2,0x2
     330:	00451023 	subu	$2,$2,$5
     334:	00023840 	sll	$7,$2,0x1
     338:	000210c0 	sll	$2,$2,0x3
     33c:	00e21021 	addu	$2,$7,$2
     340:	00821023 	subu	$2,$4,$2
     344:	10400031 	beqz	$2,40c <mylib_display_dec+0x194>
     348:	24120007 	li	$18,7
     34c:	104a0031 	beq	$2,$10,414 <mylib_display_dec+0x19c>
     350:	00000000 	nop
     354:	104c0031 	beq	$2,$12,41c <mylib_display_dec+0x1a4>
     358:	00000000 	nop
     35c:	104d0031 	beq	$2,$13,424 <mylib_display_dec+0x1ac>
     360:	00000000 	nop
     364:	104e0031 	beq	$2,$14,42c <mylib_display_dec+0x1b4>
     368:	00000000 	nop
     36c:	104f0033 	beq	$2,$15,43c <mylib_display_dec+0x1c4>
     370:	00000000 	nop
     374:	10510033 	beq	$2,$17,444 <mylib_display_dec+0x1cc>
     378:	00000000 	nop
     37c:	10520033 	beq	$2,$18,44c <mylib_display_dec+0x1d4>
     380:	00000000 	nop
     384:	38420008 	xori	$2,$2,0x8
     388:	0002102b 	sltu	$2,$0,$2
     38c:	24420038 	addiu	$2,$2,56
     390:	00860018 	mult	$4,$6
     394:	ac620000 	sw	$2,0($3)
     398:	25100001 	addiu	$16,$8,1
     39c:	00002010 	mfhi	$4
     3a0:	00042083 	sra	$4,$4,0x2
     3a4:	00852023 	subu	$4,$4,$5
     3a8:	1480000d 	bnez	$4,3e0 <mylib_display_dec+0x168>
     3ac:	24630004 	addiu	$3,$3,4
     3b0:	11600005 	beqz	$11,3c8 <mylib_display_dec+0x150>
     3b4:	00101080 	sll	$2,$16,0x2
     3b8:	01221021 	addu	$2,$9,$2
     3bc:	2403002d 	li	$3,45
     3c0:	ac430000 	sw	$3,0($2)
     3c4:	25100002 	addiu	$16,$8,2
     3c8:	2610ffff 	addiu	$16,$16,-1
     3cc:	00101080 	sll	$2,$16,0x2
     3d0:	01221021 	addu	$2,$9,$2
     3d4:	8c440000 	lw	$4,0($2)
     3d8:	080000ab 	j	2ac <mylib_display_dec+0x34>
     3dc:	2610ffff 	addiu	$16,$16,-1
     3e0:	00860018 	mult	$4,$6
     3e4:	00042fc3 	sra	$5,$4,0x1f
     3e8:	00001010 	mfhi	$2
     3ec:	00021083 	sra	$2,$2,0x2
     3f0:	00451023 	subu	$2,$2,$5
     3f4:	00023840 	sll	$7,$2,0x1
     3f8:	000210c0 	sll	$2,$2,0x3
     3fc:	00e21021 	addu	$2,$7,$2
     400:	00821023 	subu	$2,$4,$2
     404:	1440ffd1 	bnez	$2,34c <mylib_display_dec+0xd4>
     408:	02004021 	move	$8,$16
     40c:	080000e4 	j	390 <mylib_display_dec+0x118>
     410:	24020030 	li	$2,48
     414:	080000e4 	j	390 <mylib_display_dec+0x118>
     418:	24020031 	li	$2,49
     41c:	080000e4 	j	390 <mylib_display_dec+0x118>
     420:	24020032 	li	$2,50
     424:	080000e4 	j	390 <mylib_display_dec+0x118>
     428:	24020033 	li	$2,51
     42c:	080000e4 	j	390 <mylib_display_dec+0x118>
     430:	24020034 	li	$2,52
     434:	080000bd 	j	2f4 <mylib_display_dec+0x7c>
     438:	00005821 	move	$11,$0
     43c:	080000e4 	j	390 <mylib_display_dec+0x118>
     440:	24020035 	li	$2,53
     444:	080000e4 	j	390 <mylib_display_dec+0x118>
     448:	24020036 	li	$2,54
     44c:	080000e4 	j	390 <mylib_display_dec+0x118>
     450:	24020037 	li	$2,55

00000454 <mylib_display_hex>:
     454:	27bdffc0 	addiu	$29,$29,-64
     458:	27a20010 	addiu	$2,$29,16
     45c:	afb10038 	sw	$17,56($29)
     460:	afb00034 	sw	$16,52($29)
     464:	afbf003c 	sw	$31,60($29)
     468:	00408821 	move	$17,$2
     46c:	27a50030 	addiu	$5,$29,48
     470:	24060001 	li	$6,1
     474:	24070002 	li	$7,2
     478:	24080003 	li	$8,3
     47c:	24090004 	li	$9,4
     480:	240a0005 	li	$10,5
     484:	240b0006 	li	$11,6
     488:	240c0007 	li	$12,7
     48c:	240d0008 	li	$13,8
     490:	240e0009 	li	$14,9
     494:	240f000a 	li	$15,10
     498:	2410000b 	li	$16,11
     49c:	2418000c 	li	$24,12
     4a0:	2419000d 	li	$25,13
     4a4:	3083000f 	andi	$3,$4,0xf
     4a8:	1060001f 	beqz	$3,528 <mylib_display_hex+0xd4>
     4ac:	00000000 	nop
     4b0:	1066002e 	beq	$3,$6,56c <mylib_display_hex+0x118>
     4b4:	00000000 	nop
     4b8:	1067002e 	beq	$3,$7,574 <mylib_display_hex+0x120>
     4bc:	00000000 	nop
     4c0:	1068002e 	beq	$3,$8,57c <mylib_display_hex+0x128>
     4c4:	00000000 	nop
     4c8:	1069002e 	beq	$3,$9,584 <mylib_display_hex+0x130>
     4cc:	00000000 	nop
     4d0:	106a002e 	beq	$3,$10,58c <mylib_display_hex+0x138>
     4d4:	00000000 	nop
     4d8:	106b002e 	beq	$3,$11,594 <mylib_display_hex+0x140>
     4dc:	00000000 	nop
     4e0:	106c002e 	beq	$3,$12,59c <mylib_display_hex+0x148>
     4e4:	00000000 	nop
     4e8:	106d0030 	beq	$3,$13,5ac <mylib_display_hex+0x158>
     4ec:	00000000 	nop
     4f0:	106e0030 	beq	$3,$14,5b4 <mylib_display_hex+0x160>
     4f4:	00000000 	nop
     4f8:	106f002a 	beq	$3,$15,5a4 <mylib_display_hex+0x150>
     4fc:	00000000 	nop
     500:	1070002e 	beq	$3,$16,5bc <mylib_display_hex+0x168>
     504:	00000000 	nop
     508:	1078002e 	beq	$3,$24,5c4 <mylib_display_hex+0x170>
     50c:	00000000 	nop
     510:	1079002e 	beq	$3,$25,5cc <mylib_display_hex+0x178>
     514:	00000000 	nop
     518:	3863000e 	xori	$3,$3,0xe
     51c:	0003182b 	sltu	$3,$0,$3
     520:	0800014b 	j	52c <mylib_display_hex+0xd8>
     524:	24630065 	addiu	$3,$3,101
     528:	24030030 	li	$3,48
     52c:	ac430000 	sw	$3,0($2)
     530:	24420004 	addiu	$2,$2,4
     534:	1445ffdb 	bne	$2,$5,4a4 <mylib_display_hex+0x50>
     538:	00042103 	sra	$4,$4,0x4
     53c:	27b0002c 	addiu	$16,$29,44
     540:	2631fffc 	addiu	$17,$17,-4
     544:	8e040000 	lw	$4,0($16)
     548:	0c000080 	jal	200 <output_buffer_put>
     54c:	2610fffc 	addiu	$16,$16,-4
     550:	1611fffc 	bne	$16,$17,544 <mylib_display_hex+0xf0>
     554:	00000000 	nop
     558:	8fbf003c 	lw	$31,60($29)
     55c:	8fb10038 	lw	$17,56($29)
     560:	8fb00034 	lw	$16,52($29)
     564:	03e00008 	jr	$31
     568:	27bd0040 	addiu	$29,$29,64
     56c:	0800014b 	j	52c <mylib_display_hex+0xd8>
     570:	24030031 	li	$3,49
     574:	0800014b 	j	52c <mylib_display_hex+0xd8>
     578:	24030032 	li	$3,50
     57c:	0800014b 	j	52c <mylib_display_hex+0xd8>
     580:	24030033 	li	$3,51
     584:	0800014b 	j	52c <mylib_display_hex+0xd8>
     588:	24030034 	li	$3,52
     58c:	0800014b 	j	52c <mylib_display_hex+0xd8>
     590:	24030035 	li	$3,53
     594:	0800014b 	j	52c <mylib_display_hex+0xd8>
     598:	24030036 	li	$3,54
     59c:	0800014b 	j	52c <mylib_display_hex+0xd8>
     5a0:	24030037 	li	$3,55
     5a4:	0800014b 	j	52c <mylib_display_hex+0xd8>
     5a8:	24030061 	li	$3,97
     5ac:	0800014b 	j	52c <mylib_display_hex+0xd8>
     5b0:	24030038 	li	$3,56
     5b4:	0800014b 	j	52c <mylib_display_hex+0xd8>
     5b8:	24030039 	li	$3,57
     5bc:	0800014b 	j	52c <mylib_display_hex+0xd8>
     5c0:	24030062 	li	$3,98
     5c4:	0800014b 	j	52c <mylib_display_hex+0xd8>
     5c8:	24030063 	li	$3,99
     5cc:	0800014b 	j	52c <mylib_display_hex+0xd8>
     5d0:	24030064 	li	$3,100

000005d4 <mylib_display_char>:
     5d4:	08000080 	j	200 <output_buffer_put>
     5d8:	00000000 	nop

000005dc <mylib_display_newline>:
     5dc:	27bdffe8 	addiu	$29,$29,-24
     5e0:	afbf0014 	sw	$31,20($29)
     5e4:	0c000080 	jal	200 <output_buffer_put>
     5e8:	2404000a 	li	$4,10
     5ec:	8fbf0014 	lw	$31,20($29)
     5f0:	2404000d 	li	$4,13
     5f4:	08000080 	j	200 <output_buffer_put>
     5f8:	27bd0018 	addiu	$29,$29,24

000005fc <mylib_flush>:
     5fc:	3c030005 	lui	$3,0x5
     600:	8f878410 	lw	$7,-31728($28)
     604:	24630000 	addiu	$3,$3,0
     608:	24040001 	li	$4,1
     60c:	00602821 	move	$5,$3
     610:	00e03021 	move	$6,$7
     614:	24020fa4 	li	$2,4004
     618:	0000000c 	syscall
     61c:	00401821 	move	$3,$2
     620:	03e00008 	jr	$31
     624:	af808410 	sw	$0,-31728($28)

00000628 <mylib_finalize>:
     628:	27bdffe8 	addiu	$29,$29,-24
     62c:	afbf0014 	sw	$31,20($29)
     630:	0c000080 	jal	200 <output_buffer_put>
     634:	2404000a 	li	$4,10
     638:	0c000080 	jal	200 <output_buffer_put>
     63c:	2404000d 	li	$4,13
     640:	0c000080 	jal	200 <output_buffer_put>
     644:	24040045 	li	$4,69
     648:	0c000080 	jal	200 <output_buffer_put>
     64c:	2404004e 	li	$4,78
     650:	0c000080 	jal	200 <output_buffer_put>
     654:	24040044 	li	$4,68
     658:	0c000080 	jal	200 <output_buffer_put>
     65c:	2404000a 	li	$4,10
     660:	0c000080 	jal	200 <output_buffer_put>
     664:	2404000d 	li	$4,13
     668:	3c030005 	lui	$3,0x5
     66c:	8f878410 	lw	$7,-31728($28)
     670:	24630000 	addiu	$3,$3,0
     674:	24040001 	li	$4,1
     678:	00602821 	move	$5,$3
     67c:	00e03021 	move	$6,$7
     680:	24020fa4 	li	$2,4004
     684:	0000000c 	syscall
     688:	00401821 	move	$3,$2
     68c:	af808410 	sw	$0,-31728($28)
     690:	24040000 	li	$4,0
     694:	24020fa1 	li	$2,4001
     698:	0000000c 	syscall
     69c:	8fbf0014 	lw	$31,20($29)
     6a0:	00000000 	nop
     6a4:	03e00008 	jr	$31
     6a8:	27bd0018 	addiu	$29,$29,24

000006ac <make_crc32_table>:
     6ac:	3c07edb8 	lui	$7,0xedb8
     6b0:	00004021 	move	$8,$0
     6b4:	34e78320 	ori	$7,$7,0x8320
     6b8:	24090100 	li	$9,256
     6bc:	01001021 	move	$2,$8
     6c0:	080001b5 	j	6d4 <make_crc32_table+0x28>
     6c4:	24030008 	li	$3,8
     6c8:	2463ffff 	addiu	$3,$3,-1
     6cc:	10600007 	beqz	$3,6ec <make_crc32_table+0x40>
     6d0:	00c71026 	xor	$2,$6,$7
     6d4:	30450001 	andi	$5,$2,0x1
     6d8:	14a0fffb 	bnez	$5,6c8 <make_crc32_table+0x1c>
     6dc:	00023042 	srl	$6,$2,0x1
     6e0:	2463ffff 	addiu	$3,$3,-1
     6e4:	1460fffb 	bnez	$3,6d4 <make_crc32_table+0x28>
     6e8:	00021042 	srl	$2,$2,0x1
     6ec:	25080001 	addiu	$8,$8,1
     6f0:	ac820000 	sw	$2,0($4)
     6f4:	1509fff1 	bne	$8,$9,6bc <make_crc32_table+0x10>
     6f8:	24840004 	addiu	$4,$4,4
     6fc:	03e00008 	jr	$31
     700:	00000000 	nop

00000704 <update_crc32>:
     704:	00041027 	nor	$2,$0,$4
     708:	00001821 	move	$3,$0
     70c:	24070020 	li	$7,32
     710:	00652006 	srlv	$4,$5,$3
     714:	00442026 	xor	$4,$2,$4
     718:	308400ff 	andi	$4,$4,0xff
     71c:	00042080 	sll	$4,$4,0x2
     720:	00c42021 	addu	$4,$6,$4
     724:	8c840000 	lw	$4,0($4)
     728:	00021202 	srl	$2,$2,0x8
     72c:	24630008 	addiu	$3,$3,8
     730:	1467fff7 	bne	$3,$7,710 <update_crc32+0xc>
     734:	00821026 	xor	$2,$4,$2
     738:	03e00008 	jr	$31
     73c:	00021027 	nor	$2,$0,$2

00000740 <simd128_load>:
     740:	8ca20000 	lw	$2,0($5)
     744:	00000000 	nop
     748:	ac820000 	sw	$2,0($4)
     74c:	8ca20004 	lw	$2,4($5)
     750:	00000000 	nop
     754:	ac820004 	sw	$2,4($4)
     758:	8ca20008 	lw	$2,8($5)
     75c:	00000000 	nop
     760:	ac820008 	sw	$2,8($4)
     764:	8ca2000c 	lw	$2,12($5)
     768:	03e00008 	jr	$31
     76c:	ac82000c 	sw	$2,12($4)

00000770 <simd128_store>:
     770:	8c820000 	lw	$2,0($4)
     774:	00000000 	nop
     778:	aca20000 	sw	$2,0($5)
     77c:	8c820004 	lw	$2,4($4)
     780:	00000000 	nop
     784:	aca20004 	sw	$2,4($5)
     788:	8c820008 	lw	$2,8($4)
     78c:	00000000 	nop
     790:	aca20008 	sw	$2,8($5)
     794:	8c82000c 	lw	$2,12($4)
     798:	03e00008 	jr	$31
     79c:	aca2000c 	sw	$2,12($5)

000007a0 <simd128_shift_left_word>:
     7a0:	8ca20008 	lw	$2,8($5)
     7a4:	00000000 	nop
     7a8:	ac82000c 	sw	$2,12($4)
     7ac:	8ca20004 	lw	$2,4($5)
     7b0:	00000000 	nop
     7b4:	ac820008 	sw	$2,8($4)
     7b8:	8ca20000 	lw	$2,0($5)
     7bc:	ac860000 	sw	$6,0($4)
     7c0:	03e00008 	jr	$31
     7c4:	ac820004 	sw	$2,4($4)

000007c8 <simd128_shift_right_word>:
     7c8:	8ca20004 	lw	$2,4($5)
     7cc:	00000000 	nop
     7d0:	ac820000 	sw	$2,0($4)
     7d4:	8ca20008 	lw	$2,8($5)
     7d8:	00000000 	nop
     7dc:	ac820004 	sw	$2,4($4)
     7e0:	8ca2000c 	lw	$2,12($5)
     7e4:	ac86000c 	sw	$6,12($4)
     7e8:	03e00008 	jr	$31
     7ec:	ac820008 	sw	$2,8($4)

000007f0 <simd128_shift_left_logical>:
     7f0:	8ca20000 	lw	$2,0($5)
     7f4:	00000000 	nop
     7f8:	00c21004 	sllv	$2,$2,$6
     7fc:	ac820000 	sw	$2,0($4)
     800:	8ca20004 	lw	$2,4($5)
     804:	00000000 	nop
     808:	00c21004 	sllv	$2,$2,$6
     80c:	ac820004 	sw	$2,4($4)
     810:	8ca20008 	lw	$2,8($5)
     814:	00000000 	nop
     818:	00c21004 	sllv	$2,$2,$6
     81c:	ac820008 	sw	$2,8($4)
     820:	8ca2000c 	lw	$2,12($5)
     824:	00000000 	nop
     828:	00c23004 	sllv	$6,$2,$6
     82c:	03e00008 	jr	$31
     830:	ac86000c 	sw	$6,12($4)

00000834 <simd128_shift_right_logical>:
     834:	8ca20000 	lw	$2,0($5)
     838:	00000000 	nop
     83c:	00c21006 	srlv	$2,$2,$6
     840:	ac820000 	sw	$2,0($4)
     844:	8ca20004 	lw	$2,4($5)
     848:	00000000 	nop
     84c:	00c21006 	srlv	$2,$2,$6
     850:	ac820004 	sw	$2,4($4)
     854:	8ca20008 	lw	$2,8($5)
     858:	00000000 	nop
     85c:	00c21006 	srlv	$2,$2,$6
     860:	ac820008 	sw	$2,8($4)
     864:	8ca2000c 	lw	$2,12($5)
     868:	00000000 	nop
     86c:	00c23006 	srlv	$6,$2,$6
     870:	03e00008 	jr	$31
     874:	ac86000c 	sw	$6,12($4)

00000878 <simd128_shift_left_arithmetic>:
     878:	8ca20000 	lw	$2,0($5)
     87c:	00000000 	nop
     880:	00c21004 	sllv	$2,$2,$6
     884:	ac820000 	sw	$2,0($4)
     888:	8ca20004 	lw	$2,4($5)
     88c:	00000000 	nop
     890:	00c21004 	sllv	$2,$2,$6
     894:	ac820004 	sw	$2,4($4)
     898:	8ca20008 	lw	$2,8($5)
     89c:	00000000 	nop
     8a0:	00c21004 	sllv	$2,$2,$6
     8a4:	ac820008 	sw	$2,8($4)
     8a8:	8ca2000c 	lw	$2,12($5)
     8ac:	00000000 	nop
     8b0:	00c23004 	sllv	$6,$2,$6
     8b4:	03e00008 	jr	$31
     8b8:	ac86000c 	sw	$6,12($4)

000008bc <simd128_shift_right_arithmetic>:
     8bc:	8ca20000 	lw	$2,0($5)
     8c0:	00000000 	nop
     8c4:	00c21007 	srav	$2,$2,$6
     8c8:	ac820000 	sw	$2,0($4)
     8cc:	8ca20004 	lw	$2,4($5)
     8d0:	00000000 	nop
     8d4:	00c21007 	srav	$2,$2,$6
     8d8:	ac820004 	sw	$2,4($4)
     8dc:	8ca20008 	lw	$2,8($5)
     8e0:	00000000 	nop
     8e4:	00c21007 	srav	$2,$2,$6
     8e8:	ac820008 	sw	$2,8($4)
     8ec:	8ca2000c 	lw	$2,12($5)
     8f0:	00000000 	nop
     8f4:	00c23007 	srav	$6,$2,$6
     8f8:	03e00008 	jr	$31
     8fc:	ac86000c 	sw	$6,12($4)

00000900 <simd128_move>:
     900:	8ca20000 	lw	$2,0($5)
     904:	00000000 	nop
     908:	ac820000 	sw	$2,0($4)
     90c:	8ca20004 	lw	$2,4($5)
     910:	00000000 	nop
     914:	ac820004 	sw	$2,4($4)
     918:	8ca20008 	lw	$2,8($5)
     91c:	00000000 	nop
     920:	ac820008 	sw	$2,8($4)
     924:	8ca2000c 	lw	$2,12($5)
     928:	03e00008 	jr	$31
     92c:	ac82000c 	sw	$2,12($4)

00000930 <simd128_add>:
     930:	8ca30000 	lw	$3,0($5)
     934:	8cc20000 	lw	$2,0($6)
     938:	00000000 	nop
     93c:	00621021 	addu	$2,$3,$2
     940:	ac820000 	sw	$2,0($4)
     944:	8ca30004 	lw	$3,4($5)
     948:	8cc20004 	lw	$2,4($6)
     94c:	00000000 	nop
     950:	00621021 	addu	$2,$3,$2
     954:	ac820004 	sw	$2,4($4)
     958:	8ca30008 	lw	$3,8($5)
     95c:	8cc20008 	lw	$2,8($6)
     960:	00000000 	nop
     964:	00621021 	addu	$2,$3,$2
     968:	ac820008 	sw	$2,8($4)
     96c:	8ca3000c 	lw	$3,12($5)
     970:	8cc2000c 	lw	$2,12($6)
     974:	00000000 	nop
     978:	00621021 	addu	$2,$3,$2
     97c:	03e00008 	jr	$31
     980:	ac82000c 	sw	$2,12($4)

00000984 <simd128_add_scalar>:
     984:	8ca20000 	lw	$2,0($5)
     988:	00000000 	nop
     98c:	00c21021 	addu	$2,$6,$2
     990:	ac820000 	sw	$2,0($4)
     994:	8ca20004 	lw	$2,4($5)
     998:	00000000 	nop
     99c:	00c21021 	addu	$2,$6,$2
     9a0:	ac820004 	sw	$2,4($4)
     9a4:	8ca20008 	lw	$2,8($5)
     9a8:	00000000 	nop
     9ac:	00c21021 	addu	$2,$6,$2
     9b0:	ac820008 	sw	$2,8($4)
     9b4:	8ca2000c 	lw	$2,12($5)
     9b8:	00000000 	nop
     9bc:	00c23021 	addu	$6,$6,$2
     9c0:	03e00008 	jr	$31
     9c4:	ac86000c 	sw	$6,12($4)

000009c8 <simd128_sub>:
     9c8:	8ca30000 	lw	$3,0($5)
     9cc:	8cc20000 	lw	$2,0($6)
     9d0:	00000000 	nop
     9d4:	00621023 	subu	$2,$3,$2
     9d8:	ac820000 	sw	$2,0($4)
     9dc:	8ca30004 	lw	$3,4($5)
     9e0:	8cc20004 	lw	$2,4($6)
     9e4:	00000000 	nop
     9e8:	00621023 	subu	$2,$3,$2
     9ec:	ac820004 	sw	$2,4($4)
     9f0:	8ca30008 	lw	$3,8($5)
     9f4:	8cc20008 	lw	$2,8($6)
     9f8:	00000000 	nop
     9fc:	00621023 	subu	$2,$3,$2
     a00:	ac820008 	sw	$2,8($4)
     a04:	8ca3000c 	lw	$3,12($5)
     a08:	8cc2000c 	lw	$2,12($6)
     a0c:	00000000 	nop
     a10:	00621023 	subu	$2,$3,$2
     a14:	03e00008 	jr	$31
     a18:	ac82000c 	sw	$2,12($4)

00000a1c <simd128_sub_scalar>:
     a1c:	8ca20000 	lw	$2,0($5)
     a20:	00000000 	nop
     a24:	00461023 	subu	$2,$2,$6
     a28:	ac820000 	sw	$2,0($4)
     a2c:	8ca20004 	lw	$2,4($5)
     a30:	00000000 	nop
     a34:	00461023 	subu	$2,$2,$6
     a38:	ac820004 	sw	$2,4($4)
     a3c:	8ca20008 	lw	$2,8($5)
     a40:	00000000 	nop
     a44:	00461023 	subu	$2,$2,$6
     a48:	ac820008 	sw	$2,8($4)
     a4c:	8ca2000c 	lw	$2,12($5)
     a50:	00000000 	nop
     a54:	00463023 	subu	$6,$2,$6
     a58:	03e00008 	jr	$31
     a5c:	ac86000c 	sw	$6,12($4)

00000a60 <simd128_mult>:
     a60:	8cc30000 	lw	$3,0($6)
     a64:	8ce20000 	lw	$2,0($7)
     a68:	8ccb0004 	lw	$11,4($6)
     a6c:	8cea0004 	lw	$10,4($7)
     a70:	00620018 	mult	$3,$2
     a74:	8cc90008 	lw	$9,8($6)
     a78:	8ce80008 	lw	$8,8($7)
     a7c:	8ccc000c 	lw	$12,12($6)
     a80:	8ce6000c 	lw	$6,12($7)
     a84:	00001012 	mflo	$2
     a88:	00001810 	mfhi	$3
     a8c:	ac830000 	sw	$3,0($4)
     a90:	00000000 	nop
     a94:	016a0018 	mult	$11,$10
     a98:	00005012 	mflo	$10
     a9c:	00005810 	mfhi	$11
     aa0:	ac8b0004 	sw	$11,4($4)
     aa4:	00000000 	nop
     aa8:	01280018 	mult	$9,$8
     aac:	00004012 	mflo	$8
     ab0:	00004810 	mfhi	$9
     ab4:	ac890008 	sw	$9,8($4)
     ab8:	00000000 	nop
     abc:	01860018 	mult	$12,$6
     ac0:	00003012 	mflo	$6
     ac4:	00003810 	mfhi	$7
     ac8:	ac87000c 	sw	$7,12($4)
     acc:	aca20000 	sw	$2,0($5)
     ad0:	acaa0004 	sw	$10,4($5)
     ad4:	aca80008 	sw	$8,8($5)
     ad8:	03e00008 	jr	$31
     adc:	aca6000c 	sw	$6,12($5)

00000ae0 <simd128_mult_scalar>:
     ae0:	8cc20000 	lw	$2,0($6)
     ae4:	8cca0004 	lw	$10,4($6)
     ae8:	8cc80008 	lw	$8,8($6)
     aec:	00470018 	mult	$2,$7
     af0:	8cc6000c 	lw	$6,12($6)
     af4:	00001012 	mflo	$2
     af8:	00001810 	mfhi	$3
     afc:	ac830000 	sw	$3,0($4)
     b00:	00000000 	nop
     b04:	00ea0018 	mult	$7,$10
     b08:	00005012 	mflo	$10
     b0c:	00005810 	mfhi	$11
     b10:	ac8b0004 	sw	$11,4($4)
     b14:	00000000 	nop
     b18:	00e80018 	mult	$7,$8
     b1c:	00004012 	mflo	$8
     b20:	00004810 	mfhi	$9
     b24:	ac890008 	sw	$9,8($4)
     b28:	00000000 	nop
     b2c:	00e60018 	mult	$7,$6
     b30:	00003012 	mflo	$6
     b34:	00003810 	mfhi	$7
     b38:	ac87000c 	sw	$7,12($4)
     b3c:	aca20000 	sw	$2,0($5)
     b40:	acaa0004 	sw	$10,4($5)
     b44:	aca80008 	sw	$8,8($5)
     b48:	03e00008 	jr	$31
     b4c:	aca6000c 	sw	$6,12($5)

00000b50 <simd128_and>:
     b50:	8ca30000 	lw	$3,0($5)
     b54:	8cc20000 	lw	$2,0($6)
     b58:	00000000 	nop
     b5c:	00621024 	and	$2,$3,$2
     b60:	ac820000 	sw	$2,0($4)
     b64:	8ca30004 	lw	$3,4($5)
     b68:	8cc20004 	lw	$2,4($6)
     b6c:	00000000 	nop
     b70:	00621024 	and	$2,$3,$2
     b74:	ac820004 	sw	$2,4($4)
     b78:	8ca30008 	lw	$3,8($5)
     b7c:	8cc20008 	lw	$2,8($6)
     b80:	00000000 	nop
     b84:	00621024 	and	$2,$3,$2
     b88:	ac820008 	sw	$2,8($4)
     b8c:	8ca3000c 	lw	$3,12($5)
     b90:	8cc2000c 	lw	$2,12($6)
     b94:	00000000 	nop
     b98:	00621024 	and	$2,$3,$2
     b9c:	03e00008 	jr	$31
     ba0:	ac82000c 	sw	$2,12($4)

00000ba4 <simd128_xor>:
     ba4:	8ca30000 	lw	$3,0($5)
     ba8:	8cc20000 	lw	$2,0($6)
     bac:	00000000 	nop
     bb0:	00621026 	xor	$2,$3,$2
     bb4:	ac820000 	sw	$2,0($4)
     bb8:	8ca30004 	lw	$3,4($5)
     bbc:	8cc20004 	lw	$2,4($6)
     bc0:	00000000 	nop
     bc4:	00621026 	xor	$2,$3,$2
     bc8:	ac820004 	sw	$2,4($4)
     bcc:	8ca30008 	lw	$3,8($5)
     bd0:	8cc20008 	lw	$2,8($6)
     bd4:	00000000 	nop
     bd8:	00621026 	xor	$2,$3,$2
     bdc:	ac820008 	sw	$2,8($4)
     be0:	8ca3000c 	lw	$3,12($5)
     be4:	8cc2000c 	lw	$2,12($6)
     be8:	00000000 	nop
     bec:	00621026 	xor	$2,$3,$2
     bf0:	03e00008 	jr	$31
     bf4:	ac82000c 	sw	$2,12($4)

00000bf8 <simd128_or>:
     bf8:	8ca30000 	lw	$3,0($5)
     bfc:	8cc20000 	lw	$2,0($6)
     c00:	00000000 	nop
     c04:	00621025 	or	$2,$3,$2
     c08:	ac820000 	sw	$2,0($4)
     c0c:	8ca30004 	lw	$3,4($5)
     c10:	8cc20004 	lw	$2,4($6)
     c14:	00000000 	nop
     c18:	00621025 	or	$2,$3,$2
     c1c:	ac820004 	sw	$2,4($4)
     c20:	8ca30008 	lw	$3,8($5)
     c24:	8cc20008 	lw	$2,8($6)
     c28:	00000000 	nop
     c2c:	00621025 	or	$2,$3,$2
     c30:	ac820008 	sw	$2,8($4)
     c34:	8ca3000c 	lw	$3,12($5)
     c38:	8cc2000c 	lw	$2,12($6)
     c3c:	00000000 	nop
     c40:	00621025 	or	$2,$3,$2
     c44:	03e00008 	jr	$31
     c48:	ac82000c 	sw	$2,12($4)

00000c4c <simd128_nor>:
     c4c:	8ca30000 	lw	$3,0($5)
     c50:	8cc20000 	lw	$2,0($6)
     c54:	00000000 	nop
     c58:	00621025 	or	$2,$3,$2
     c5c:	00021027 	nor	$2,$0,$2
     c60:	ac820000 	sw	$2,0($4)
     c64:	8ca30004 	lw	$3,4($5)
     c68:	8cc20004 	lw	$2,4($6)
     c6c:	00000000 	nop
     c70:	00621025 	or	$2,$3,$2
     c74:	00021027 	nor	$2,$0,$2
     c78:	ac820004 	sw	$2,4($4)
     c7c:	8ca30008 	lw	$3,8($5)
     c80:	8cc20008 	lw	$2,8($6)
     c84:	00000000 	nop
     c88:	00621025 	or	$2,$3,$2
     c8c:	00021027 	nor	$2,$0,$2
     c90:	ac820008 	sw	$2,8($4)
     c94:	8ca3000c 	lw	$3,12($5)
     c98:	8cc2000c 	lw	$2,12($6)
     c9c:	00000000 	nop
     ca0:	00621025 	or	$2,$3,$2
     ca4:	00021027 	nor	$2,$0,$2
     ca8:	03e00008 	jr	$31
     cac:	ac82000c 	sw	$2,12($4)

00000cb0 <main>:
     cb0:	3c030001 	lui	$3,0x1
     cb4:	24630000 	addiu	$3,$3,0
     cb8:	3c020004 	lui	$2,0x4
     cbc:	00431021 	addu	$2,$2,$3
     cc0:	8c42fffc 	lw	$2,-4($2)
     cc4:	27bdfb58 	addiu	$29,$29,-1192
     cc8:	af838420 	sw	$3,-31712($28)
     ccc:	afa20430 	sw	$2,1072($29)
     cd0:	3c030005 	lui	$3,0x5
     cd4:	3c020000 	lui	$2,0x0
     cd8:	2463fffc 	addiu	$3,$3,-4
     cdc:	244213d4 	addiu	$2,$2,5076
     ce0:	af838424 	sw	$3,-31708($28)
     ce4:	afbf04a4 	sw	$31,1188($29)
     ce8:	afbe04a0 	sw	$30,1184($29)
     cec:	afb7049c 	sw	$23,1180($29)
     cf0:	afb60498 	sw	$22,1176($29)
     cf4:	afb50494 	sw	$21,1172($29)
     cf8:	afb40490 	sw	$20,1168($29)
     cfc:	afb3048c 	sw	$19,1164($29)
     d00:	afb20488 	sw	$18,1160($29)
     d04:	afb10484 	sw	$17,1156($29)
     d08:	afb00480 	sw	$16,1152($29)
     d0c:	27a30010 	addiu	$3,$29,16
     d10:	24440400 	addiu	$4,$2,1024
     d14:	8c480000 	lw	$8,0($2)
     d18:	8c470004 	lw	$7,4($2)
     d1c:	8c460008 	lw	$6,8($2)
     d20:	8c45000c 	lw	$5,12($2)
     d24:	24420010 	addiu	$2,$2,16
     d28:	ac680000 	sw	$8,0($3)
     d2c:	ac670004 	sw	$7,4($3)
     d30:	ac660008 	sw	$6,8($3)
     d34:	ac65000c 	sw	$5,12($3)
     d38:	1444fff6 	bne	$2,$4,d14 <main+0x64>
     d3c:	24630010 	addiu	$3,$3,16
     d40:	0c000080 	jal	200 <output_buffer_put>
     d44:	2404006d 	li	$4,109
     d48:	0c000080 	jal	200 <output_buffer_put>
     d4c:	2404006d 	li	$4,109
     d50:	0c000080 	jal	200 <output_buffer_put>
     d54:	24040020 	li	$4,32
     d58:	0c000080 	jal	200 <output_buffer_put>
     d5c:	2404006e 	li	$4,110
     d60:	0c000080 	jal	200 <output_buffer_put>
     d64:	2404003d 	li	$4,61
     d68:	8fa40430 	lw	$4,1072($29)
     d6c:	0c00009e 	jal	278 <mylib_display_dec>
     d70:	00000000 	nop
     d74:	0c000080 	jal	200 <output_buffer_put>
     d78:	2404000a 	li	$4,10
     d7c:	0c000080 	jal	200 <output_buffer_put>
     d80:	2404000d 	li	$4,13
     d84:	8fa20430 	lw	$2,1072($29)
     d88:	00000000 	nop
     d8c:	00420018 	mult	$2,$2
     d90:	00008812 	mflo	$17
     d94:	1a20018c 	blez	$17,13c8 <main+0x718>
     d98:	3c020025 	lui	$2,0x25
     d9c:	8f898420 	lw	$9,-31712($28)
     da0:	3c04005d 	lui	$4,0x5d
     da4:	3c030005 	lui	$3,0x5
     da8:	24420420 	addiu	$2,$2,1056
     dac:	afa20448 	sw	$2,1096($29)
     db0:	24840420 	addiu	$4,$4,1056
     db4:	24630420 	addiu	$3,$3,1056
     db8:	00004021 	move	$8,$0
     dbc:	00003821 	move	$7,$0
     dc0:	00083080 	sll	$6,$8,0x2
     dc4:	24c50010 	addiu	$5,$6,16
     dc8:	01252821 	addu	$5,$9,$5
     dcc:	01263021 	addu	$6,$9,$6
     dd0:	8ccc0000 	lw	$12,0($6)
     dd4:	8cd00004 	lw	$16,4($6)
     dd8:	8ccb0008 	lw	$11,8($6)
     ddc:	8ccf000c 	lw	$15,12($6)
     de0:	8caa0000 	lw	$10,0($5)
     de4:	8cae0004 	lw	$14,4($5)
     de8:	8ca60008 	lw	$6,8($5)
     dec:	8cad000c 	lw	$13,12($5)
     df0:	24e70004 	addiu	$7,$7,4
     df4:	25080008 	addiu	$8,$8,8
     df8:	00f1282a 	slt	$5,$7,$17
     dfc:	ac700000 	sw	$16,0($3)
     e00:	ac6f0004 	sw	$15,4($3)
     e04:	ac6e0008 	sw	$14,8($3)
     e08:	ac6d000c 	sw	$13,12($3)
     e0c:	ac8c0000 	sw	$12,0($4)
     e10:	ac8b0004 	sw	$11,4($4)
     e14:	ac8a0008 	sw	$10,8($4)
     e18:	ac86000c 	sw	$6,12($4)
     e1c:	ac400000 	sw	$0,0($2)
     e20:	ac400004 	sw	$0,4($2)
     e24:	ac400008 	sw	$0,8($2)
     e28:	ac40000c 	sw	$0,12($2)
     e2c:	3108ffff 	andi	$8,$8,0xffff
     e30:	24840010 	addiu	$4,$4,16
     e34:	24630010 	addiu	$3,$3,16
     e38:	14a0ffe1 	bnez	$5,dc0 <main+0x110>
     e3c:	24420010 	addiu	$2,$2,16
     e40:	8fa30430 	lw	$3,1072($29)
     e44:	00000000 	nop
     e48:	1860015d 	blez	$3,13c0 <main+0x710>
     e4c:	00032880 	sll	$5,$3,0x2
     e50:	8fa60430 	lw	$6,1072($29)
     e54:	3c04005d 	lui	$4,0x5d
     e58:	afa0044c 	sw	$0,1100($29)
     e5c:	24c2ffff 	addiu	$2,$6,-1
     e60:	00021082 	srl	$2,$2,0x2
     e64:	24420001 	addiu	$2,$2,1
     e68:	00021100 	sll	$2,$2,0x4
     e6c:	00063880 	sll	$7,$6,0x2
     e70:	000670c0 	sll	$14,$6,0x3
     e74:	afa2045c 	sw	$2,1116($29)
     e78:	00061040 	sll	$2,$6,0x1
     e7c:	afa20464 	sw	$2,1124($29)
     e80:	afa70434 	sw	$7,1076($29)
     e84:	afae0460 	sw	$14,1120($29)
     e88:	afa70450 	sw	$7,1104($29)
     e8c:	00c02821 	move	$5,$6
     e90:	00001021 	move	$2,$0
     e94:	afa00468 	sw	$0,1128($29)
     e98:	248b0420 	addiu	$11,$4,1056
     e9c:	afae0440 	sw	$14,1088($29)
     ea0:	8fa70464 	lw	$7,1124($29)
     ea4:	8fae0464 	lw	$14,1124($29)
     ea8:	8fa40450 	lw	$4,1104($29)
     eac:	00a73821 	addu	$7,$5,$7
     eb0:	00e21823 	subu	$3,$7,$2
     eb4:	00a22823 	subu	$5,$5,$2
     eb8:	00031880 	sll	$3,$3,0x2
     ebc:	004e1021 	addu	$2,$2,$14
     ec0:	afa20470 	sw	$2,1136($29)
     ec4:	afa30438 	sw	$3,1080($29)
     ec8:	8fa2044c 	lw	$2,1100($29)
     ecc:	8fa30460 	lw	$3,1120($29)
     ed0:	00052880 	sll	$5,$5,0x2
     ed4:	afa7046c 	sw	$7,1132($29)
     ed8:	00431021 	addu	$2,$2,$3
     edc:	00832021 	addu	$4,$4,$3
     ee0:	afa5043c 	sw	$5,1084($29)
     ee4:	afa20458 	sw	$2,1112($29)
     ee8:	afa40454 	sw	$4,1108($29)
     eec:	afa00444 	sw	$0,1092($29)
     ef0:	8fb10444 	lw	$17,1092($29)
     ef4:	0000a021 	move	$20,$0
     ef8:	8fa8044c 	lw	$8,1100($29)
     efc:	02801821 	move	$3,$20
     f00:	afa00410 	sw	$0,1040($29)
     f04:	0220a021 	move	$20,$17
     f08:	afa00414 	sw	$0,1044($29)
     f0c:	afa00418 	sw	$0,1048($29)
     f10:	afa0041c 	sw	$0,1052($29)
     f14:	afa00420 	sw	$0,1056($29)
     f18:	afa00424 	sw	$0,1060($29)
     f1c:	0000a821 	move	$21,$0
     f20:	0000f821 	move	$31,$0
     f24:	0000f021 	move	$30,$0
     f28:	0000c821 	move	$25,$0
     f2c:	0000c021 	move	$24,$0
     f30:	0000b821 	move	$23,$0
     f34:	0000b021 	move	$22,$0
     f38:	00009821 	move	$19,$0
     f3c:	00009021 	move	$18,$0
     f40:	00008021 	move	$16,$0
     f44:	00608821 	move	$17,$3
     f48:	8fa60440 	lw	$6,1088($29)
     f4c:	3c0e0005 	lui	$14,0x5
     f50:	25ce0420 	addiu	$14,$14,1056
     f54:	01d41021 	addu	$2,$14,$20
     f58:	01062821 	addu	$5,$8,$6
     f5c:	01683021 	addu	$6,$11,$8
     f60:	8c4e0000 	lw	$14,0($2)
     f64:	8cc60000 	lw	$6,0($6)
     f68:	8fa3043c 	lw	$3,1084($29)
     f6c:	8fa70438 	lw	$7,1080($29)
     f70:	01c60018 	mult	$14,$6
     f74:	8c4d0004 	lw	$13,4($2)
     f78:	01032021 	addu	$4,$8,$3
     f7c:	01071821 	addu	$3,$8,$7
     f80:	01631821 	addu	$3,$11,$3
     f84:	8c4c0008 	lw	$12,8($2)
     f88:	8c690000 	lw	$9,0($3)
     f8c:	8c4a000c 	lw	$10,12($2)
     f90:	01642021 	addu	$4,$11,$4
     f94:	8c840000 	lw	$4,0($4)
     f98:	01652821 	addu	$5,$11,$5
     f9c:	8caf0000 	lw	$15,0($5)
     fa0:	8fa50414 	lw	$5,1044($29)
     fa4:	26b50001 	addiu	$21,$21,1
     fa8:	25080004 	addiu	$8,$8,4
     fac:	00001012 	mflo	$2
     fb0:	afa20478 	sw	$2,1144($29)
     fb4:	8fa20434 	lw	$2,1076($29)
     fb8:	00001810 	mfhi	$3
     fbc:	afa3047c 	sw	$3,1148($29)
     fc0:	0282a021 	addu	$20,$20,$2
     fc4:	00cd0018 	mult	$6,$13
     fc8:	00001012 	mflo	$2
     fcc:	afa20428 	sw	$2,1064($29)
     fd0:	8fa20410 	lw	$2,1040($29)
     fd4:	00001810 	mfhi	$3
     fd8:	8fa70428 	lw	$7,1064($29)
     fdc:	afa3042c 	sw	$3,1068($29)
     fe0:	8fa30478 	lw	$3,1144($29)
     fe4:	00cc0018 	mult	$6,$12
     fe8:	00a72821 	addu	$5,$5,$7
     fec:	afa50414 	sw	$5,1044($29)
     ff0:	00431021 	addu	$2,$2,$3
     ff4:	afa20410 	sw	$2,1040($29)
     ff8:	8fa50418 	lw	$5,1048($29)
     ffc:	00001012 	mflo	$2
    1000:	00a22821 	addu	$5,$5,$2
    1004:	afa50418 	sw	$5,1048($29)
    1008:	00ca0018 	mult	$6,$10
    100c:	8fa5041c 	lw	$5,1052($29)
    1010:	00003012 	mflo	$6
    1014:	00a62821 	addu	$5,$5,$6
    1018:	afa5041c 	sw	$5,1052($29)
    101c:	01c40018 	mult	$14,$4
    1020:	8fa50420 	lw	$5,1056($29)
    1024:	00001012 	mflo	$2
    1028:	00a22821 	addu	$5,$5,$2
    102c:	afa50420 	sw	$5,1056($29)
    1030:	01a40018 	mult	$13,$4
    1034:	8fa50424 	lw	$5,1060($29)
    1038:	00003012 	mflo	$6
    103c:	00a62821 	addu	$5,$5,$6
    1040:	afa50424 	sw	$5,1060($29)
    1044:	01840018 	mult	$12,$4
    1048:	00001012 	mflo	$2
    104c:	02028021 	addu	$16,$16,$2
    1050:	00000000 	nop
    1054:	01440018 	mult	$10,$4
    1058:	00002012 	mflo	$4
    105c:	02248821 	addu	$17,$17,$4
    1060:	00000000 	nop
    1064:	01cf0018 	mult	$14,$15
    1068:	00001012 	mflo	$2
    106c:	03e2f821 	addu	$31,$31,$2
    1070:	00000000 	nop
    1074:	01af0018 	mult	$13,$15
    1078:	00002012 	mflo	$4
    107c:	03c4f021 	addu	$30,$30,$4
    1080:	00000000 	nop
    1084:	018f0018 	mult	$12,$15
    1088:	00001012 	mflo	$2
    108c:	0322c821 	addu	$25,$25,$2
    1090:	00000000 	nop
    1094:	014f0018 	mult	$10,$15
    1098:	00002012 	mflo	$4
    109c:	0304c021 	addu	$24,$24,$4
    10a0:	00000000 	nop
    10a4:	01c90018 	mult	$14,$9
    10a8:	00007012 	mflo	$14
    10ac:	02eeb821 	addu	$23,$23,$14
    10b0:	00000000 	nop
    10b4:	01a90018 	mult	$13,$9
    10b8:	00001012 	mflo	$2
    10bc:	02c2b021 	addu	$22,$22,$2
    10c0:	00000000 	nop
    10c4:	01890018 	mult	$12,$9
    10c8:	00006012 	mflo	$12
	...
    10d4:	01490018 	mult	$10,$9
    10d8:	00001012 	mflo	$2
    10dc:	02429021 	addu	$18,$18,$2
    10e0:	8fa20430 	lw	$2,1072($29)
    10e4:	00000000 	nop
    10e8:	16a2ff97 	bne	$21,$2,f48 <main+0x298>
    10ec:	026c9821 	addu	$19,$19,$12
    10f0:	8fa30444 	lw	$3,1092($29)
    10f4:	8fa4044c 	lw	$4,1100($29)
    10f8:	8fa60450 	lw	$6,1104($29)
    10fc:	8fae0444 	lw	$14,1092($29)
    1100:	00642821 	addu	$5,$3,$4
    1104:	8fa70458 	lw	$7,1112($29)
    1108:	00662021 	addu	$4,$3,$6
    110c:	8fa60454 	lw	$6,1108($29)
    1110:	00671821 	addu	$3,$3,$7
    1114:	8fa70448 	lw	$7,1096($29)
    1118:	01c61021 	addu	$2,$14,$6
    111c:	25ce0010 	addiu	$14,$14,16
    1120:	afae0444 	sw	$14,1092($29)
    1124:	8fae0410 	lw	$14,1040($29)
    1128:	00e52821 	addu	$5,$7,$5
    112c:	00e42021 	addu	$4,$7,$4
    1130:	acae0000 	sw	$14,0($5)
    1134:	00e31821 	addu	$3,$7,$3
    1138:	00e21021 	addu	$2,$7,$2
    113c:	8fa60414 	lw	$6,1044($29)
    1140:	8fa70418 	lw	$7,1048($29)
    1144:	8fae041c 	lw	$14,1052($29)
    1148:	aca60004 	sw	$6,4($5)
    114c:	aca70008 	sw	$7,8($5)
    1150:	acae000c 	sw	$14,12($5)
    1154:	8fa60424 	lw	$6,1060($29)
    1158:	8fa50420 	lw	$5,1056($29)
    115c:	8fa70444 	lw	$7,1092($29)
    1160:	8fae045c 	lw	$14,1116($29)
    1164:	ac850000 	sw	$5,0($4)
    1168:	ac860004 	sw	$6,4($4)
    116c:	ac900008 	sw	$16,8($4)
    1170:	ac91000c 	sw	$17,12($4)
    1174:	ac7f0000 	sw	$31,0($3)
    1178:	ac7e0004 	sw	$30,4($3)
    117c:	ac790008 	sw	$25,8($3)
    1180:	ac78000c 	sw	$24,12($3)
    1184:	ac570000 	sw	$23,0($2)
    1188:	ac560004 	sw	$22,4($2)
    118c:	ac530008 	sw	$19,8($2)
    1190:	14eeff57 	bne	$7,$14,ef0 <main+0x240>
    1194:	ac52000c 	sw	$18,12($2)
    1198:	8fa20468 	lw	$2,1128($29)
    119c:	8fa70460 	lw	$7,1120($29)
    11a0:	8fa60458 	lw	$6,1112($29)
    11a4:	8fa50430 	lw	$5,1072($29)
    11a8:	24420004 	addiu	$2,$2,4
    11ac:	00c73021 	addu	$6,$6,$7
    11b0:	8fae0454 	lw	$14,1108($29)
    11b4:	0045182a 	slt	$3,$2,$5
    11b8:	8fa40464 	lw	$4,1124($29)
    11bc:	afa20468 	sw	$2,1128($29)
    11c0:	afa6044c 	sw	$6,1100($29)
    11c4:	8fa2046c 	lw	$2,1132($29)
    11c8:	8fa60470 	lw	$6,1136($29)
    11cc:	01c77021 	addu	$14,$14,$7
    11d0:	00442821 	addu	$5,$2,$4
    11d4:	afae0450 	sw	$14,1104($29)
    11d8:	1460ff31 	bnez	$3,ea0 <main+0x1f0>
    11dc:	00c41021 	addu	$2,$6,$4
    11e0:	0c000080 	jal	200 <output_buffer_put>
    11e4:	2404000a 	li	$4,10
    11e8:	0c000080 	jal	200 <output_buffer_put>
    11ec:	2404000d 	li	$4,13
    11f0:	8fa50430 	lw	$5,1072($29)
    11f4:	24100008 	li	$16,8
    11f8:	24a2fff9 	addiu	$2,$5,-7
    11fc:	00a20018 	mult	$5,$2
    1200:	00008812 	mflo	$17
    1204:	00118880 	sll	$17,$17,0x2
    1208:	2631ffe0 	addiu	$17,$17,-32
    120c:	8fa30448 	lw	$3,1096($29)
    1210:	00000000 	nop
    1214:	00711021 	addu	$2,$3,$17
    1218:	8c440000 	lw	$4,0($2)
    121c:	8c570004 	lw	$23,4($2)
    1220:	8c560008 	lw	$22,8($2)
    1224:	8c5e000c 	lw	$30,12($2)
    1228:	8c550010 	lw	$21,16($2)
    122c:	8c540014 	lw	$20,20($2)
    1230:	8c530018 	lw	$19,24($2)
    1234:	8c52001c 	lw	$18,28($2)
    1238:	0c000115 	jal	454 <mylib_display_hex>
    123c:	2610ffff 	addiu	$16,$16,-1
    1240:	0c000080 	jal	200 <output_buffer_put>
    1244:	24040020 	li	$4,32
    1248:	0c000115 	jal	454 <mylib_display_hex>
    124c:	02e02021 	move	$4,$23
    1250:	0c000080 	jal	200 <output_buffer_put>
    1254:	24040020 	li	$4,32
    1258:	0c000115 	jal	454 <mylib_display_hex>
    125c:	02c02021 	move	$4,$22
    1260:	0c000080 	jal	200 <output_buffer_put>
    1264:	24040020 	li	$4,32
    1268:	0c000115 	jal	454 <mylib_display_hex>
    126c:	03c02021 	move	$4,$30
    1270:	0c000080 	jal	200 <output_buffer_put>
    1274:	24040020 	li	$4,32
    1278:	0c000115 	jal	454 <mylib_display_hex>
    127c:	02a02021 	move	$4,$21
    1280:	0c000080 	jal	200 <output_buffer_put>
    1284:	24040020 	li	$4,32
    1288:	0c000115 	jal	454 <mylib_display_hex>
    128c:	02802021 	move	$4,$20
    1290:	0c000080 	jal	200 <output_buffer_put>
    1294:	24040020 	li	$4,32
    1298:	0c000115 	jal	454 <mylib_display_hex>
    129c:	02602021 	move	$4,$19
    12a0:	0c000080 	jal	200 <output_buffer_put>
    12a4:	24040020 	li	$4,32
    12a8:	0c000115 	jal	454 <mylib_display_hex>
    12ac:	02402021 	move	$4,$18
    12b0:	0c000080 	jal	200 <output_buffer_put>
    12b4:	24040020 	li	$4,32
    12b8:	0c000080 	jal	200 <output_buffer_put>
    12bc:	2404000a 	li	$4,10
    12c0:	0c000080 	jal	200 <output_buffer_put>
    12c4:	2404000d 	li	$4,13
    12c8:	8fa50434 	lw	$5,1076($29)
    12cc:	1600ffcf 	bnez	$16,120c <main+0x55c>
    12d0:	02258821 	addu	$17,$17,$5
    12d4:	8fa60430 	lw	$6,1072($29)
    12d8:	00000000 	nop
    12dc:	18c00036 	blez	$6,13b8 <main+0x708>
    12e0:	00005021 	move	$10,$0
    12e4:	8fab0430 	lw	$11,1072($29)
    12e8:	8fac0448 	lw	$12,1096($29)
    12ec:	00002021 	move	$4,$0
    12f0:	00004821 	move	$9,$0
    12f4:	24060020 	li	$6,32
    12f8:	00801821 	move	$3,$4
    12fc:	00a06821 	move	$13,$5
    1300:	01404021 	move	$8,$10
    1304:	00003821 	move	$7,$0
    1308:	01881021 	addu	$2,$12,$8
    130c:	8c450000 	lw	$5,0($2)
    1310:	00031827 	nor	$3,$0,$3
    1314:	00001021 	move	$2,$0
    1318:	00452006 	srlv	$4,$5,$2
    131c:	00642026 	xor	$4,$3,$4
    1320:	308400ff 	andi	$4,$4,0xff
    1324:	00042080 	sll	$4,$4,0x2
    1328:	27ae0010 	addiu	$14,$29,16
    132c:	01c42021 	addu	$4,$14,$4
    1330:	8c840000 	lw	$4,0($4)
    1334:	00031a02 	srl	$3,$3,0x8
    1338:	24420008 	addiu	$2,$2,8
    133c:	1446fff6 	bne	$2,$6,1318 <main+0x668>
    1340:	00831826 	xor	$3,$4,$3
    1344:	24e70001 	addiu	$7,$7,1
    1348:	00031827 	nor	$3,$0,$3
    134c:	14ebffee 	bne	$7,$11,1308 <main+0x658>
    1350:	25080004 	addiu	$8,$8,4
    1354:	25290001 	addiu	$9,$9,1
    1358:	152bffe9 	bne	$9,$11,1300 <main+0x650>
    135c:	014d5021 	addu	$10,$10,$13
    1360:	00602021 	move	$4,$3
    1364:	0c000115 	jal	454 <mylib_display_hex>
    1368:	00000000 	nop
    136c:	0c000080 	jal	200 <output_buffer_put>
    1370:	2404000a 	li	$4,10
    1374:	0c000080 	jal	200 <output_buffer_put>
    1378:	2404000d 	li	$4,13
    137c:	0c00018a 	jal	628 <mylib_finalize>
    1380:	00000000 	nop
    1384:	8fbf04a4 	lw	$31,1188($29)
    1388:	8fbe04a0 	lw	$30,1184($29)
    138c:	8fb7049c 	lw	$23,1180($29)
    1390:	8fb60498 	lw	$22,1176($29)
    1394:	8fb50494 	lw	$21,1172($29)
    1398:	8fb40490 	lw	$20,1168($29)
    139c:	8fb3048c 	lw	$19,1164($29)
    13a0:	8fb20488 	lw	$18,1160($29)
    13a4:	8fb10484 	lw	$17,1156($29)
    13a8:	8fb00480 	lw	$16,1152($29)
    13ac:	00001021 	move	$2,$0
    13b0:	03e00008 	jr	$31
    13b4:	27bd04a8 	addiu	$29,$29,1192
    13b8:	080004d9 	j	1364 <main+0x6b4>
    13bc:	00002021 	move	$4,$0
    13c0:	08000478 	j	11e0 <main+0x530>
    13c4:	afa50434 	sw	$5,1076($29)
    13c8:	24420420 	addiu	$2,$2,1056
    13cc:	08000390 	j	e40 <main+0x190>
    13d0:	afa20448 	sw	$2,1096($29)
